target datalayout = "e-m:e-p270:32:32-p271:32:32-p272:64:64-i64:64-i128:128-f80:128-n8:16:32:64-S128"
target triple = "x86_64-unknown-linux-gnu"

%"class.sat::parallel::vector_pool" = type { %class.svector, i32, i32, %class.svector, %class.svector.0 }
%class.svector = type { %class.vector }
%class.vector = type { ptr }
%class.svector.0 = type { %class.vector.1 }
%class.vector.1 = type { ptr }

@.str.4 = private unnamed_addr constant [2 x i8] c"\0A\00", align 1
@.str.5 = private unnamed_addr constant [4 x i8] c": [\00", align 1
@.str.6 = private unnamed_addr constant [2 x i8] c":\00", align 1
@.str.7 = private unnamed_addr constant [9 x i8] c"] tail: \00", align 1

; Function Attrs: mustprogress nounwind uwtable
define linkonce_odr hidden noundef ptr @_ZNK6vectorIjLb0EjE4dataEv(ptr noundef nonnull align 8 dereferenceable(8) %this) #4 comdat align 2 {
entry:
  %this.addr = alloca ptr, align 8
  store ptr %this, ptr %this.addr, align 8
  %this1 = load ptr, ptr %this.addr, align 8
  %m_data = getelementptr inbounds %class.vector, ptr %this1, i32 0, i32 0
  %0 = load ptr, ptr %m_data, align 8
  ret ptr %0
}

; Function Attrs: mustprogress nounwind uwtable
define linkonce_odr hidden noundef nonnull align 4 dereferenceable(4) ptr @_ZNK6vectorIjLb0EjEixEj(ptr noundef nonnull align 8 dereferenceable(8) %this, i32 noundef %idx) #4 comdat align 2 {
entry:
  %this.addr = alloca ptr, align 8
  %idx.addr = alloca i32, align 4
  store ptr %this, ptr %this.addr, align 8
  store i32 %idx, ptr %idx.addr, align 4
  %this1 = load ptr, ptr %this.addr, align 8
  %m_data = getelementptr inbounds %class.vector, ptr %this1, i32 0, i32 0
  %0 = load ptr, ptr %m_data, align 8
  %1 = load i32, ptr %idx.addr, align 4
  %idxprom = zext i32 %1 to i64
  %arrayidx = getelementptr inbounds i32, ptr %0, i64 %idxprom
  ret ptr %arrayidx
}

; Function Attrs: mustprogress uwtable
define linkonce_odr hidden noundef ptr @_ZNK3sat8parallel11vector_pool7get_ptrEj(ptr noundef nonnull align 8 dereferenceable(32) %this, i32 noundef %index) #5 comdat align 2 {
entry:
  %this.addr = alloca ptr, align 8
  %index.addr = alloca i32, align 4
  store ptr %this, ptr %this.addr, align 8
  store i32 %index, ptr %index.addr, align 4
  %this1 = load ptr, ptr %this.addr, align 8
  %m_vectors = getelementptr inbounds %"class.sat::parallel::vector_pool", ptr %this1, i32 0, i32 0
  %call = call noundef ptr @_ZNK6vectorIjLb0EjE4dataEv(ptr noundef nonnull align 8 dereferenceable(8) %m_vectors)
  %0 = load i32, ptr %index.addr, align 4
  %idx.ext = zext i32 %0 to i64
  %add.ptr = getelementptr inbounds i32, ptr %call, i64 %idx.ext
  %add.ptr2 = getelementptr inbounds i32, ptr %add.ptr, i64 2
  ret ptr %add.ptr2
}

; Function Attrs: mustprogress uwtable
define linkonce_odr hidden noundef i32 @_ZNK3sat8parallel11vector_pool10get_lengthEj(ptr noundef nonnull align 8 dereferenceable(32) %this, i32 noundef %index) #5 comdat align 2 {
entry:
  %this.addr = alloca ptr, align 8
  %index.addr = alloca i32, align 4
  store ptr %this, ptr %this.addr, align 8
  store i32 %index, ptr %index.addr, align 4
  %this1 = load ptr, ptr %this.addr, align 8
  %m_vectors = getelementptr inbounds %"class.sat::parallel::vector_pool", ptr %this1, i32 0, i32 0
  %0 = load i32, ptr %index.addr, align 4
  %add = add i32 %0, 1
  %call = call noundef nonnull align 4 dereferenceable(4) ptr @_ZNK6vectorIjLb0EjEixEj(ptr noundef nonnull align 8 dereferenceable(8) %m_vectors, i32 noundef %add)
  %1 = load i32, ptr %call, align 4
  ret i32 %1
}

; Function Attrs: mustprogress uwtable
define hidden void @_ZN3sat8parallel11vector_pool4nextERj(ptr noundef nonnull align 8 dereferenceable(32) %this, ptr noundef nonnull align 4 dereferenceable(4) %index) #5 align 2 {
entry:
  %this.addr = alloca ptr, align 8
  %index.addr = alloca ptr, align 8
  %n = alloca i32, align 4
  store ptr %this, ptr %this.addr, align 8
  store ptr %index, ptr %index.addr, align 8
  %this1 = load ptr, ptr %this.addr, align 8
  %0 = load ptr, ptr %index.addr, align 8
  %1 = load i32, ptr %0, align 4
  %add = add i32 %1, 2
  %2 = load ptr, ptr %index.addr, align 8
  %3 = load i32, ptr %2, align 4
  %call = call noundef i32 @_ZNK3sat8parallel11vector_pool10get_lengthEj(ptr noundef nonnull align 8 dereferenceable(32) %this1, i32 noundef %3)
  %add2 = add i32 %add, %call
  store i32 %add2, ptr %n, align 4
  %4 = load i32, ptr %n, align 4
  %m_size = getelementptr inbounds %"class.sat::parallel::vector_pool", ptr %this1, i32 0, i32 1
  %5 = load i32, ptr %m_size, align 8
  %cmp = icmp uge i32 %4, %5
  br i1 %cmp, label %cond.true, label %cond.false

cond.true:                                        ; preds = %entry
  br label %cond.end

cond.false:                                       ; preds = %entry
  %6 = load i32, ptr %n, align 4
  br label %cond.end

cond.end:                                         ; preds = %cond.false, %cond.true
  %cond = phi i32 [ 0, %cond.true ], [ %6, %cond.false ]
  %7 = load ptr, ptr %index.addr, align 8
  store i32 %cond, ptr %7, align 4
  ret void
}

; Function Attrs: mustprogress nounwind uwtable
define linkonce_odr hidden noundef i32 @_ZNK3sat8parallel11vector_pool9get_ownerEj(ptr noundef nonnull align 8 dereferenceable(32) %this, i32 noundef %index) #4 comdat align 2 {
entry:
  %this.addr = alloca ptr, align 8
  %index.addr = alloca i32, align 4
  store ptr %this, ptr %this.addr, align 8
  store i32 %index, ptr %index.addr, align 4
  %this1 = load ptr, ptr %this.addr, align 8
  %m_vectors = getelementptr inbounds %"class.sat::parallel::vector_pool", ptr %this1, i32 0, i32 0
  %0 = load i32, ptr %index.addr, align 4
  %call = call noundef nonnull align 4 dereferenceable(4) ptr @_ZNK6vectorIjLb0EjEixEj(ptr noundef nonnull align 8 dereferenceable(8) %m_vectors, i32 noundef %0)
  %1 = load i32, ptr %call, align 4
  ret i32 %1
}

; Function Attrs: mustprogress nounwind uwtable
define linkonce_odr hidden noundef nonnull align 1 dereferenceable(1) ptr @_ZN6vectorIbLb0EjEixEj(ptr noundef nonnull align 8 dereferenceable(8) %this, i32 noundef %idx) #4 comdat align 2 {
entry:
  %this.addr = alloca ptr, align 8
  %idx.addr = alloca i32, align 4
  store ptr %this, ptr %this.addr, align 8
  store i32 %idx, ptr %idx.addr, align 4
  %this1 = load ptr, ptr %this.addr, align 8
  %m_data = getelementptr inbounds %class.vector.1, ptr %this1, i32 0, i32 0
  %0 = load ptr, ptr %m_data, align 8
  %1 = load i32, ptr %idx.addr, align 4
  %idxprom = zext i32 %1 to i64
  %arrayidx = getelementptr inbounds i8, ptr %0, i64 %idxprom
  ret ptr %arrayidx
}

; Function Attrs: mustprogress nounwind uwtable
define linkonce_odr hidden noundef nonnull align 4 dereferenceable(4) ptr @_ZN6vectorIjLb0EjEixEj(ptr noundef nonnull align 8 dereferenceable(8) %this, i32 noundef %idx) #4 comdat align 2 {
entry:
  %this.addr = alloca ptr, align 8
  %idx.addr = alloca i32, align 4
  store ptr %this, ptr %this.addr, align 8
  store i32 %idx, ptr %idx.addr, align 4
  %this1 = load ptr, ptr %this.addr, align 8
  %m_data = getelementptr inbounds %class.vector, ptr %this1, i32 0, i32 0
  %0 = load ptr, ptr %m_data, align 8
  %1 = load i32, ptr %idx.addr, align 4
  %idxprom = zext i32 %1 to i64
  %arrayidx = getelementptr inbounds i32, ptr %0, i64 %idxprom
  ret ptr %arrayidx
}

; Function Attrs: mustprogress uwtable
define hidden noundef zeroext i1 @_ZN3sat8parallel11vector_pool10get_vectorEjRjRPKj(ptr noundef nonnull align 8 dereferenceable(32) %this, i32 noundef %owner, ptr noundef nonnull align 4 dereferenceable(4) %n, ptr noundef nonnull align 8 dereferenceable(8) %ptr) #5 align 2 {
entry:
  %retval = alloca i1, align 1
  %this.addr = alloca ptr, align 8
  %owner.addr = alloca i32, align 4
  %n.addr = alloca ptr, align 8
  %ptr.addr = alloca ptr, align 8
  %head = alloca i32, align 4
  %iterations = alloca i32, align 4
  %is_self = alloca i8, align 1
  store ptr %this, ptr %this.addr, align 8
  store i32 %owner, ptr %owner.addr, align 4
  store ptr %n, ptr %n.addr, align 8
  store ptr %ptr, ptr %ptr.addr, align 8
  %this1 = load ptr, ptr %this.addr, align 8
  %m_heads = getelementptr inbounds %"class.sat::parallel::vector_pool", ptr %this1, i32 0, i32 3
  %0 = load i32, ptr %owner.addr, align 4
  %call = call noundef nonnull align 4 dereferenceable(4) ptr @_ZN6vectorIjLb0EjEixEj(ptr noundef nonnull align 8 dereferenceable(8) %m_heads, i32 noundef %0)
  %1 = load i32, ptr %call, align 4
  store i32 %1, ptr %head, align 4
  store i32 0, ptr %iterations, align 4
  br label %while.cond

while.cond:                                       ; preds = %if.end48, %entry
  %2 = load i32, ptr %head, align 4
  %m_tail = getelementptr inbounds %"class.sat::parallel::vector_pool", ptr %this1, i32 0, i32 2
  %3 = load i32, ptr %m_tail, align 4
  %cmp = icmp ne i32 %2, %3
  br i1 %cmp, label %lor.end, label %lor.rhs

lor.rhs:                                          ; preds = %while.cond
  %m_at_end = getelementptr inbounds %"class.sat::parallel::vector_pool", ptr %this1, i32 0, i32 4
  %4 = load i32, ptr %owner.addr, align 4
  %call2 = call noundef nonnull align 1 dereferenceable(1) ptr @_ZN6vectorIbLb0EjEixEj(ptr noundef nonnull align 8 dereferenceable(8) %m_at_end, i32 noundef %4)
  %5 = load i8, ptr %call2, align 1
  %tobool = trunc i8 %5 to i1
  %lnot = xor i1 %tobool, true
  br label %lor.end

lor.end:                                          ; preds = %lor.rhs, %while.cond
  %6 = phi i1 [ true, %while.cond ], [ %lnot, %lor.rhs ]
  br i1 %6, label %while.body, label %while.end

while.body:                                       ; preds = %lor.end
  %7 = load i32, ptr %iterations, align 4
  %inc = add i32 %7, 1
  store i32 %inc, ptr %iterations, align 4
  %8 = load i32, ptr %owner.addr, align 4
  %9 = load i32, ptr %head, align 4
  %call3 = call noundef i32 @_ZNK3sat8parallel11vector_pool9get_ownerEj(ptr noundef nonnull align 8 dereferenceable(32) %this1, i32 noundef %9)
  %cmp4 = icmp eq i32 %8, %call3
  %frombool = zext i1 %cmp4 to i8
  store i8 %frombool, ptr %is_self, align 1
  %m_heads5 = getelementptr inbounds %"class.sat::parallel::vector_pool", ptr %this1, i32 0, i32 3
  %10 = load i32, ptr %owner.addr, align 4
  %call6 = call noundef nonnull align 4 dereferenceable(4) ptr @_ZN6vectorIjLb0EjEixEj(ptr noundef nonnull align 8 dereferenceable(8) %m_heads5, i32 noundef %10)
  call void @_ZN3sat8parallel11vector_pool4nextERj(ptr noundef nonnull align 8 dereferenceable(32) %this1, ptr noundef nonnull align 4 dereferenceable(4) %call6)
  %call7 = call noundef i32 @_Z19get_verbosity_levelv()
  %11 = load i32, ptr %iterations, align 4
  %m_size = getelementptr inbounds %"class.sat::parallel::vector_pool", ptr %this1, i32 0, i32 1
  %12 = load i32, ptr %m_size, align 8
  %cmp8 = icmp ugt i32 %11, %12
  %cond = select i1 %cmp8, i32 0, i32 3
  %cmp9 = icmp uge i32 %call7, %cond
  br i1 %cmp9, label %if.then, label %if.end36

if.then:                                          ; preds = %while.body
  %call10 = call noundef zeroext i1 @_Z11is_threadedv()
  br i1 %call10, label %if.then11, label %if.else

if.then11:                                        ; preds = %if.then
  call void @_Z12verbose_lockv()
  %call12 = call noundef nonnull align 8 dereferenceable(8) ptr @_Z14verbose_streamv()
  %13 = load i32, ptr %owner.addr, align 4
  %call13 = call noundef nonnull align 8 dereferenceable(8) ptr @_ZNSolsEj(ptr noundef nonnull align 8 dereferenceable(8) %call12, i32 noundef %13)
  %call14 = call noundef nonnull align 8 dereferenceable(8) ptr @_ZStlsISt11char_traitsIcEERSt13basic_ostreamIcT_ES5_PKc(ptr noundef nonnull align 8 dereferenceable(8) %call13, ptr noundef @.str.5)
  %14 = load i32, ptr %head, align 4
  %call15 = call noundef nonnull align 8 dereferenceable(8) ptr @_ZNSolsEj(ptr noundef nonnull align 8 dereferenceable(8) %call14, i32 noundef %14)
  %call16 = call noundef nonnull align 8 dereferenceable(8) ptr @_ZStlsISt11char_traitsIcEERSt13basic_ostreamIcT_ES5_PKc(ptr noundef nonnull align 8 dereferenceable(8) %call15, ptr noundef @.str.6)
  %m_heads17 = getelementptr inbounds %"class.sat::parallel::vector_pool", ptr %this1, i32 0, i32 3
  %15 = load i32, ptr %owner.addr, align 4
  %call18 = call noundef nonnull align 4 dereferenceable(4) ptr @_ZN6vectorIjLb0EjEixEj(ptr noundef nonnull align 8 dereferenceable(8) %m_heads17, i32 noundef %15)
  %16 = load i32, ptr %call18, align 4
  %call19 = call noundef nonnull align 8 dereferenceable(8) ptr @_ZNSolsEj(ptr noundef nonnull align 8 dereferenceable(8) %call16, i32 noundef %16)
  %call20 = call noundef nonnull align 8 dereferenceable(8) ptr @_ZStlsISt11char_traitsIcEERSt13basic_ostreamIcT_ES5_PKc(ptr noundef nonnull align 8 dereferenceable(8) %call19, ptr noundef @.str.7)
  %m_tail21 = getelementptr inbounds %"class.sat::parallel::vector_pool", ptr %this1, i32 0, i32 2
  %17 = load i32, ptr %m_tail21, align 4
  %call22 = call noundef nonnull align 8 dereferenceable(8) ptr @_ZNSolsEj(ptr noundef nonnull align 8 dereferenceable(8) %call20, i32 noundef %17)
  %call23 = call noundef nonnull align 8 dereferenceable(8) ptr @_ZStlsISt11char_traitsIcEERSt13basic_ostreamIcT_ES5_PKc(ptr noundef nonnull align 8 dereferenceable(8) %call22, ptr noundef @.str.4)
  call void @_Z14verbose_unlockv()
  br label %if.end

if.else:                                          ; preds = %if.then
  %call24 = call noundef nonnull align 8 dereferenceable(8) ptr @_Z14verbose_streamv()
  %18 = load i32, ptr %owner.addr, align 4
  %call25 = call noundef nonnull align 8 dereferenceable(8) ptr @_ZNSolsEj(ptr noundef nonnull align 8 dereferenceable(8) %call24, i32 noundef %18)
  %call26 = call noundef nonnull align 8 dereferenceable(8) ptr @_ZStlsISt11char_traitsIcEERSt13basic_ostreamIcT_ES5_PKc(ptr noundef nonnull align 8 dereferenceable(8) %call25, ptr noundef @.str.5)
  %19 = load i32, ptr %head, align 4
  %call27 = call noundef nonnull align 8 dereferenceable(8) ptr @_ZNSolsEj(ptr noundef nonnull align 8 dereferenceable(8) %call26, i32 noundef %19)
  %call28 = call noundef nonnull align 8 dereferenceable(8) ptr @_ZStlsISt11char_traitsIcEERSt13basic_ostreamIcT_ES5_PKc(ptr noundef nonnull align 8 dereferenceable(8) %call27, ptr noundef @.str.6)
  %m_heads29 = getelementptr inbounds %"class.sat::parallel::vector_pool", ptr %this1, i32 0, i32 3
  %20 = load i32, ptr %owner.addr, align 4
  %call30 = call noundef nonnull align 4 dereferenceable(4) ptr @_ZN6vectorIjLb0EjEixEj(ptr noundef nonnull align 8 dereferenceable(8) %m_heads29, i32 noundef %20)
  %21 = load i32, ptr %call30, align 4
  %call31 = call noundef nonnull align 8 dereferenceable(8) ptr @_ZNSolsEj(ptr noundef nonnull align 8 dereferenceable(8) %call28, i32 noundef %21)
  %call32 = call noundef nonnull align 8 dereferenceable(8) ptr @_ZStlsISt11char_traitsIcEERSt13basic_ostreamIcT_ES5_PKc(ptr noundef nonnull align 8 dereferenceable(8) %call31, ptr noundef @.str.7)
  %m_tail33 = getelementptr inbounds %"class.sat::parallel::vector_pool", ptr %this1, i32 0, i32 2
  %22 = load i32, ptr %m_tail33, align 4
  %call34 = call noundef nonnull align 8 dereferenceable(8) ptr @_ZNSolsEj(ptr noundef nonnull align 8 dereferenceable(8) %call32, i32 noundef %22)
  %call35 = call noundef nonnull align 8 dereferenceable(8) ptr @_ZStlsISt11char_traitsIcEERSt13basic_ostreamIcT_ES5_PKc(ptr noundef nonnull align 8 dereferenceable(8) %call34, ptr noundef @.str.4)
  br label %if.end

if.end:                                           ; preds = %if.else, %if.then11
  br label %if.end36

if.end36:                                         ; preds = %if.end, %while.body
  %m_heads37 = getelementptr inbounds %"class.sat::parallel::vector_pool", ptr %this1, i32 0, i32 3
  %23 = load i32, ptr %owner.addr, align 4
  %call38 = call noundef nonnull align 4 dereferenceable(4) ptr @_ZN6vectorIjLb0EjEixEj(ptr noundef nonnull align 8 dereferenceable(8) %m_heads37, i32 noundef %23)
  %24 = load i32, ptr %call38, align 4
  %m_tail39 = getelementptr inbounds %"class.sat::parallel::vector_pool", ptr %this1, i32 0, i32 2
  %25 = load i32, ptr %m_tail39, align 4
  %cmp40 = icmp eq i32 %24, %25
  %m_at_end41 = getelementptr inbounds %"class.sat::parallel::vector_pool", ptr %this1, i32 0, i32 4
  %26 = load i32, ptr %owner.addr, align 4
  %call42 = call noundef nonnull align 1 dereferenceable(1) ptr @_ZN6vectorIbLb0EjEixEj(ptr noundef nonnull align 8 dereferenceable(8) %m_at_end41, i32 noundef %26)
  %frombool43 = zext i1 %cmp40 to i8
  store i8 %frombool43, ptr %call42, align 1
  %27 = load i8, ptr %is_self, align 1
  %tobool44 = trunc i8 %27 to i1
  br i1 %tobool44, label %if.end48, label %if.then45

if.then45:                                        ; preds = %if.end36
  %28 = load i32, ptr %head, align 4
  %call46 = call noundef i32 @_ZNK3sat8parallel11vector_pool10get_lengthEj(ptr noundef nonnull align 8 dereferenceable(32) %this1, i32 noundef %28)
  %29 = load ptr, ptr %n.addr, align 8
  store i32 %call46, ptr %29, align 4
  %30 = load i32, ptr %head, align 4
  %call47 = call noundef ptr @_ZNK3sat8parallel11vector_pool7get_ptrEj(ptr noundef nonnull align 8 dereferenceable(32) %this1, i32 noundef %30)
  %31 = load ptr, ptr %ptr.addr, align 8
  store ptr %call47, ptr %31, align 8
  store i1 true, ptr %retval, align 1
  br label %return

if.end48:                                         ; preds = %if.end36
  %m_heads49 = getelementptr inbounds %"class.sat::parallel::vector_pool", ptr %this1, i32 0, i32 3
  %32 = load i32, ptr %owner.addr, align 4
  %call50 = call noundef nonnull align 4 dereferenceable(4) ptr @_ZN6vectorIjLb0EjEixEj(ptr noundef nonnull align 8 dereferenceable(8) %m_heads49, i32 noundef %32)
  %33 = load i32, ptr %call50, align 4
  store i32 %33, ptr %head, align 4
  br label %while.cond, !llvm.loop !11

while.end:                                        ; preds = %lor.end
  store i1 false, ptr %retval, align 1
  br label %return

return:                                           ; preds = %while.end, %if.then45
  %34 = load i1, ptr %retval, align 1
  ret i1 %34
}