; Function Attrs: mustprogress uwtable
define hidden noundef zeroext i1 @_ZN3sat8parallel11vector_pool10get_vectorEjRjRPKj(ptr nocapture noundef nonnull readonly align 8 dereferenceable(32) %this, i32 noundef %owner, ptr nocapture noundef nonnull writeonly align 4 dereferenceable(4) %n, ptr nocapture noundef nonnull writeonly align 8 dereferenceable(8) %ptr) local_unnamed_addr #4 align 2 {
entry:
  %m_heads = getelementptr inbounds i8, ptr %this, i64 16
  %idxprom.i = zext i32 %owner to i64
  %m_tail = getelementptr inbounds i8, ptr %this, i64 12
  %m_at_end = getelementptr inbounds i8, ptr %this, i64 24
  %m_size.i = getelementptr inbounds i8, ptr %this, i64 8
  br label %while.cond

while.cond:                                       ; preds = %if.end36, %entry
  %iterations.0 = phi i32 [ 0, %entry ], [ %inc, %if.end36 ]
  %.pn = load ptr, ptr %m_heads, align 8
  %head.0.in = getelementptr inbounds i32, ptr %.pn, i64 %idxprom.i
  %head.0 = load i32, ptr %head.0.in, align 4
  %0 = load i32, ptr %m_tail, align 4
  %cmp.not = icmp eq i32 %head.0, %0
  br i1 %cmp.not, label %lor.rhs, label %while.body

lor.rhs:                                          ; preds = %while.cond
  %1 = load ptr, ptr %m_at_end, align 8
  %arrayidx.i19 = getelementptr inbounds i8, ptr %1, i64 %idxprom.i
  %2 = load i8, ptr %arrayidx.i19, align 1
  %3 = and i8 %2, 1
  %tobool.not = icmp eq i8 %3, 0
  br i1 %tobool.not, label %while.body, label %return

while.body:                                       ; preds = %while.cond, %lor.rhs
  %inc = add i32 %iterations.0, 1
  %4 = load ptr, ptr %this, align 8
  %idxprom.i.i = zext i32 %head.0 to i64
  %arrayidx.i.i = getelementptr inbounds i32, ptr %4, i64 %idxprom.i.i
  %5 = load i32, ptr %arrayidx.i.i, align 4
  %cmp4 = icmp eq i32 %5, %owner
  %add.i = add i32 %head.0, 2
  %add.i.i = add i32 %head.0, 1
  %idxprom.i.i.i = zext i32 %add.i.i to i64
  %arrayidx.i.i.i = getelementptr inbounds i32, ptr %4, i64 %idxprom.i.i.i
  %6 = load i32, ptr %arrayidx.i.i.i, align 4
  %add2.i = add i32 %add.i, %6
  %7 = load i32, ptr %m_size.i, align 8
  %cmp.not.i = icmp ult i32 %add2.i, %7
  %cond.i = select i1 %cmp.not.i, i32 %add2.i, i32 0
  store i32 %cond.i, ptr %head.0.in, align 4
  %call7 = tail call noundef i32 @_Z19get_verbosity_levelv()
  %8 = load i32, ptr %m_size.i, align 8
  %cmp8 = icmp ule i32 %inc, %8
  %cmp9.not17 = icmp ult i32 %call7, 3
  %cmp9.not = and i1 %cmp9.not17, %cmp8
  br i1 %cmp9.not, label %if.end36, label %if.then

if.then:                                          ; preds = %while.body
  %call10 = tail call noundef zeroext i1 @_Z11is_threadedv()
  br i1 %call10, label %if.then11, label %if.else

if.then11:                                        ; preds = %if.then
  tail call void @_Z12verbose_lockv()
  %call12 = tail call noundef nonnull align 8 dereferenceable(8) ptr @_Z14verbose_streamv()
  %call13 = tail call noundef nonnull align 8 dereferenceable(8) ptr @_ZNSolsEj(ptr noundef nonnull align 8 dereferenceable(8) %call12, i32 noundef %owner)
  %call14 = tail call noundef nonnull align 8 dereferenceable(8) ptr @_ZStlsISt11char_traitsIcEERSt13basic_ostreamIcT_ES5_PKc(ptr noundef nonnull align 8 dereferenceable(8) %call13, ptr noundef nonnull @.str.5)
  %call15 = tail call noundef nonnull align 8 dereferenceable(8) ptr @_ZNSolsEj(ptr noundef nonnull align 8 dereferenceable(8) %call14, i32 noundef %head.0)
  %call16 = tail call noundef nonnull align 8 dereferenceable(8) ptr @_ZStlsISt11char_traitsIcEERSt13basic_ostreamIcT_ES5_PKc(ptr noundef nonnull align 8 dereferenceable(8) %call15, ptr noundef nonnull @.str.6)
  %9 = load ptr, ptr %m_heads, align 8
  %arrayidx.i23 = getelementptr inbounds i32, ptr %9, i64 %idxprom.i
  %10 = load i32, ptr %arrayidx.i23, align 4
  %call19 = tail call noundef nonnull align 8 dereferenceable(8) ptr @_ZNSolsEj(ptr noundef nonnull align 8 dereferenceable(8) %call16, i32 noundef %10)
  %call20 = tail call noundef nonnull align 8 dereferenceable(8) ptr @_ZStlsISt11char_traitsIcEERSt13basic_ostreamIcT_ES5_PKc(ptr noundef nonnull align 8 dereferenceable(8) %call19, ptr noundef nonnull @.str.7)
  %11 = load i32, ptr %m_tail, align 4
  %call22 = tail call noundef nonnull align 8 dereferenceable(8) ptr @_ZNSolsEj(ptr noundef nonnull align 8 dereferenceable(8) %call20, i32 noundef %11)
  %call23 = tail call noundef nonnull align 8 dereferenceable(8) ptr @_ZStlsISt11char_traitsIcEERSt13basic_ostreamIcT_ES5_PKc(ptr noundef nonnull align 8 dereferenceable(8) %call22, ptr noundef nonnull @.str.4)
  tail call void @_Z14verbose_unlockv()
  br label %if.end36

if.else:                                          ; preds = %if.then
  %call24 = tail call noundef nonnull align 8 dereferenceable(8) ptr @_Z14verbose_streamv()
  %call25 = tail call noundef nonnull align 8 dereferenceable(8) ptr @_ZNSolsEj(ptr noundef nonnull align 8 dereferenceable(8) %call24, i32 noundef %owner)
  %call26 = tail call noundef nonnull align 8 dereferenceable(8) ptr @_ZStlsISt11char_traitsIcEERSt13basic_ostreamIcT_ES5_PKc(ptr noundef nonnull align 8 dereferenceable(8) %call25, ptr noundef nonnull @.str.5)
  %call27 = tail call noundef nonnull align 8 dereferenceable(8) ptr @_ZNSolsEj(ptr noundef nonnull align 8 dereferenceable(8) %call26, i32 noundef %head.0)
  %call28 = tail call noundef nonnull align 8 dereferenceable(8) ptr @_ZStlsISt11char_traitsIcEERSt13basic_ostreamIcT_ES5_PKc(ptr noundef nonnull align 8 dereferenceable(8) %call27, ptr noundef nonnull @.str.6)
  %12 = load ptr, ptr %m_heads, align 8
  %arrayidx.i25 = getelementptr inbounds i32, ptr %12, i64 %idxprom.i
  %13 = load i32, ptr %arrayidx.i25, align 4
  %call31 = tail call noundef nonnull align 8 dereferenceable(8) ptr @_ZNSolsEj(ptr noundef nonnull align 8 dereferenceable(8) %call28, i32 noundef %13)
  %call32 = tail call noundef nonnull align 8 dereferenceable(8) ptr @_ZStlsISt11char_traitsIcEERSt13basic_ostreamIcT_ES5_PKc(ptr noundef nonnull align 8 dereferenceable(8) %call31, ptr noundef nonnull @.str.7)
  %14 = load i32, ptr %m_tail, align 4
  %call34 = tail call noundef nonnull align 8 dereferenceable(8) ptr @_ZNSolsEj(ptr noundef nonnull align 8 dereferenceable(8) %call32, i32 noundef %14)
  %call35 = tail call noundef nonnull align 8 dereferenceable(8) ptr @_ZStlsISt11char_traitsIcEERSt13basic_ostreamIcT_ES5_PKc(ptr noundef nonnull align 8 dereferenceable(8) %call34, ptr noundef nonnull @.str.4)
  br label %if.end36

if.end36:                                         ; preds = %if.then11, %if.else, %while.body
  %15 = load ptr, ptr %m_heads, align 8
  %arrayidx.i27 = getelementptr inbounds i32, ptr %15, i64 %idxprom.i
  %16 = load i32, ptr %arrayidx.i27, align 4
  %17 = load i32, ptr %m_tail, align 4
  %cmp40 = icmp eq i32 %16, %17
  %18 = load ptr, ptr %m_at_end, align 8
  %arrayidx.i29 = getelementptr inbounds i8, ptr %18, i64 %idxprom.i
  %frombool43 = zext i1 %cmp40 to i8
  store i8 %frombool43, ptr %arrayidx.i29, align 1
  br i1 %cmp4, label %while.cond, label %if.then45, !llvm.loop !10

if.then45:                                        ; preds = %if.end36
  %19 = load ptr, ptr %this, align 8
  %arrayidx.i.i32 = getelementptr inbounds i32, ptr %19, i64 %idxprom.i.i.i
  %20 = load i32, ptr %arrayidx.i.i32, align 4
  store i32 %20, ptr %n, align 4
  %21 = load ptr, ptr %this, align 8
  %add.ptr.i = getelementptr inbounds i32, ptr %21, i64 %idxprom.i.i
  %add.ptr2.i = getelementptr inbounds i8, ptr %add.ptr.i, i64 8
  store ptr %add.ptr2.i, ptr %ptr, align 8
  br label %return

return:                                           ; preds = %lor.rhs, %if.then45
  %retval.0 = phi i1 [ true, %if.then45 ], [ false, %lor.rhs ]
  ret i1 %retval.0
}